target datalayout = "e-m:e-p270:32:32-p271:32:32-p272:64:64-i64:64-i128:128-f80:128-n8:16:32:64-S128"
target triple = "x86_64-pc-linux-gnu"

%struct._lv_calendar_t = type { %struct._lv_obj_t, ptr, %struct.lv_calendar_date_t, %struct.lv_calendar_date_t, ptr, i64, [56 x ptr], i8, [42 x [20 x i8]] }
%struct._lv_obj_t = type { ptr, ptr, ptr, ptr, ptr, %struct.lv_area_t, i32, i16, i16 }
%struct.lv_area_t = type { i32, i32, i32, i32 }
%struct.lv_calendar_date_t = type { i16, i8, i8 }

; Function Attrs: nounwind uwtable
define i32 @lv_calendar_get_pressed_date(ptr noundef %0, ptr noundef %1) #0 {
  %3 = alloca i32, align 4
  %4 = alloca ptr, align 8
  %5 = alloca ptr, align 8
  %6 = alloca ptr, align 8
  %7 = alloca i32, align 4
  %8 = alloca i32, align 4
  %9 = alloca ptr, align 8
  store ptr %0, ptr %4, align 8, !tbaa !3
  store ptr %1, ptr %5, align 8, !tbaa !3
  br label %10

10:                                               ; preds = %2
  br label %11

11:                                               ; preds = %10
  call void @llvm.lifetime.start.p0(i64 8, ptr %6) #5
  %12 = load ptr, ptr %4, align 8, !tbaa !3
  store ptr %12, ptr %6, align 8, !tbaa !3
  call void @llvm.lifetime.start.p0(i64 4, ptr %7) #5
  %13 = load ptr, ptr %6, align 8, !tbaa !3
  %14 = getelementptr inbounds nuw %struct._lv_calendar_t, ptr %13, i32 0, i32 1
  %15 = load ptr, ptr %14, align 8, !tbaa !26
  %16 = call i32 @lv_buttonmatrix_get_selected_button(ptr noundef %15)
  store i32 %16, ptr %7, align 4, !tbaa !27
  %17 = load i32, ptr %7, align 4, !tbaa !27
  %18 = icmp eq i32 %17, 65535
  br i1 %18, label %19, label %26

19:                                               ; preds = %11
  %20 = load ptr, ptr %5, align 8, !tbaa !3
  %21 = getelementptr inbounds nuw %struct.lv_calendar_date_t, ptr %20, i32 0, i32 0
  store i16 0, ptr %21, align 2, !tbaa !29
  %22 = load ptr, ptr %5, align 8, !tbaa !3
  %23 = getelementptr inbounds nuw %struct.lv_calendar_date_t, ptr %22, i32 0, i32 1
  store i8 0, ptr %23, align 2, !tbaa !30
  %24 = load ptr, ptr %5, align 8, !tbaa !3
  %25 = getelementptr inbounds nuw %struct.lv_calendar_date_t, ptr %24, i32 0, i32 2
  store i8 0, ptr %25, align 1, !tbaa !31
  store i32 0, ptr %3, align 4
  store i32 1, ptr %8, align 4
  br label %78

26:                                               ; preds = %11
  call void @llvm.lifetime.start.p0(i64 8, ptr %9) #5
  %27 = load ptr, ptr %6, align 8, !tbaa !3
  %28 = getelementptr inbounds nuw %struct._lv_calendar_t, ptr %27, i32 0, i32 1
  %29 = load ptr, ptr %28, align 8, !tbaa !26
  %30 = load ptr, ptr %6, align 8, !tbaa !3
  %31 = getelementptr inbounds nuw %struct._lv_calendar_t, ptr %30, i32 0, i32 1
  %32 = load ptr, ptr %31, align 8, !tbaa !26
  %33 = call i32 @lv_buttonmatrix_get_selected_button(ptr noundef %32)
  %34 = call ptr @lv_buttonmatrix_get_button_text(ptr noundef %29, i32 noundef %33)
  store ptr %34, ptr %9, align 8, !tbaa !3
  %35 = load ptr, ptr %9, align 8, !tbaa !3
  %36 = getelementptr inbounds i8, ptr %35, i64 1
  %37 = load i8, ptr %36, align 1, !tbaa !23
  %38 = sext i8 %37 to i32
  %39 = icmp eq i32 %38, 0
  br i1 %39, label %40, label %49

40:                                               ; preds = %26
  %41 = load ptr, ptr %9, align 8, !tbaa !3
  %42 = getelementptr inbounds i8, ptr %41, i64 0
  %43 = load i8, ptr %42, align 1, !tbaa !23
  %44 = sext i8 %43 to i32
  %45 = sub nsw i32 %44, 48
  %46 = trunc i32 %45 to i8
  %47 = load ptr, ptr %5, align 8, !tbaa !3
  %48 = getelementptr inbounds nuw %struct.lv_calendar_date_t, ptr %47, i32 0, i32 2
  store i8 %46, ptr %48, align 1, !tbaa !31
  br label %65

49:                                               ; preds = %26
  %50 = load ptr, ptr %9, align 8, !tbaa !3
  %51 = getelementptr inbounds i8, ptr %50, i64 0
  %52 = load i8, ptr %51, align 1, !tbaa !23
  %53 = sext i8 %52 to i32
  %54 = sub nsw i32 %53, 48
  %55 = mul nsw i32 %54, 10
  %56 = load ptr, ptr %9, align 8, !tbaa !3
  %57 = getelementptr inbounds i8, ptr %56, i64 1
  %58 = load i8, ptr %57, align 1, !tbaa !23
  %59 = sext i8 %58 to i32
  %60 = sub nsw i32 %59, 48
  %61 = add nsw i32 %55, %60
  %62 = trunc i32 %61 to i8
  %63 = load ptr, ptr %5, align 8, !tbaa !3
  %64 = getelementptr inbounds nuw %struct.lv_calendar_date_t, ptr %63, i32 0, i32 2
  store i8 %62, ptr %64, align 1, !tbaa !31
  br label %65

65:                                               ; preds = %49, %40
  %66 = load ptr, ptr %6, align 8, !tbaa !3
  %67 = getelementptr inbounds nuw %struct._lv_calendar_t, ptr %66, i32 0, i32 3
  %68 = getelementptr inbounds nuw %struct.lv_calendar_date_t, ptr %67, i32 0, i32 0
  %69 = load i16, ptr %68, align 4, !tbaa !18
  %70 = load ptr, ptr %5, align 8, !tbaa !3
  %71 = getelementptr inbounds nuw %struct.lv_calendar_date_t, ptr %70, i32 0, i32 0
  store i16 %69, ptr %71, align 2, !tbaa !29
  %72 = load ptr, ptr %6, align 8, !tbaa !3
  %73 = getelementptr inbounds nuw %struct._lv_calendar_t, ptr %72, i32 0, i32 3
  %74 = getelementptr inbounds nuw %struct.lv_calendar_date_t, ptr %73, i32 0, i32 1
  %75 = load i8, ptr %74, align 2, !tbaa !19
  %76 = load ptr, ptr %5, align 8, !tbaa !3
  %77 = getelementptr inbounds nuw %struct.lv_calendar_date_t, ptr %76, i32 0, i32 1
  store i8 %75, ptr %77, align 2, !tbaa !30
  store i32 1, ptr %3, align 4
  store i32 1, ptr %8, align 4
  call void @llvm.lifetime.end.p0(i64 8, ptr %9) #5
  br label %78

78:                                               ; preds = %65, %19
  call void @llvm.lifetime.end.p0(i64 4, ptr %7) #5
  call void @llvm.lifetime.end.p0(i64 8, ptr %6) #5
  %79 = load i32, ptr %3, align 4
  ret i32 %79
}