; Function Attrs: nounwind uwtable
define range(i32 0, 2) i32 @lv_calendar_get_pressed_date(ptr nocapture noundef readonly %0, ptr nocapture noundef writeonly %1) local_unnamed_addr #0 {
  %3 = getelementptr inbounds nuw i8, ptr %0, i64 64
  %4 = load ptr, ptr %3, align 8, !tbaa !24
  %5 = tail call i32 @lv_buttonmatrix_get_selected_button(ptr noundef %4) #5
  %6 = icmp eq i32 %5, 65535
  br i1 %6, label %7, label %10

7:                                                ; preds = %2
  store i16 0, ptr %1, align 2, !tbaa !28
  %8 = getelementptr inbounds nuw i8, ptr %1, i64 2
  store i8 0, ptr %8, align 2, !tbaa !29
  %9 = getelementptr inbounds nuw i8, ptr %1, i64 3
  store i8 0, ptr %9, align 1, !tbaa !30
  br label %28

10:                                               ; preds = %2
  %11 = load ptr, ptr %3, align 8, !tbaa !24
  %12 = tail call i32 @lv_buttonmatrix_get_selected_button(ptr noundef %11) #5
  %13 = tail call ptr @lv_buttonmatrix_get_button_text(ptr noundef %11, i32 noundef %12) #5
  %14 = getelementptr inbounds i8, ptr %13, i64 1
  %15 = load i8, ptr %14, align 1, !tbaa !21
  %16 = icmp eq i8 %15, 0
  %17 = load i8, ptr %13, align 1, !tbaa !21
  %18 = add i8 %17, -48
  %19 = mul i8 %17, 10
  %20 = add i8 %15, -16
  %21 = add i8 %20, %19
  %.sink = select i1 %16, i8 %18, i8 %21
  %22 = getelementptr inbounds nuw i8, ptr %1, i64 3
  store i8 %.sink, ptr %22, align 1
  %23 = getelementptr inbounds nuw i8, ptr %0, i64 76
  %24 = load i16, ptr %23, align 4, !tbaa !17
  store i16 %24, ptr %1, align 2, !tbaa !28
  %25 = getelementptr inbounds nuw i8, ptr %0, i64 78
  %26 = load i8, ptr %25, align 2, !tbaa !18
  %27 = getelementptr inbounds nuw i8, ptr %1, i64 2
  store i8 %26, ptr %27, align 2, !tbaa !29
  br label %28

28:                                               ; preds = %10, %7
  %.0 = phi i32 [ 0, %7 ], [ 1, %10 ]
  ret i32 %.0
}